target datalayout = "e-m:e-p270:32:32-p271:32:32-p272:64:64-i64:64-i128:128-f80:128-n8:16:32:64-S128"
target triple = "x86_64-pc-linux-gnu"

%class.JVMFlag = type { ptr, ptr, i32, i32 }

; Function Attrs: mustprogress nounwind uwtable
define linkonce_odr hidden noundef i32 @_ZNK7JVMFlag4typeEv(ptr noundef nonnull align 8 dereferenceable(24) %0) #1 comdat align 2 {
  %2 = alloca ptr, align 8
  store ptr %0, ptr %2, align 8
  %3 = load ptr, ptr %2, align 8
  %4 = getelementptr inbounds %class.JVMFlag, ptr %3, i32 0, i32 3
  %5 = load i32, ptr %4, align 4
  ret i32 %5
}

; Function Attrs: mustprogress nounwind uwtable
define linkonce_odr hidden noundef ptr @_ZN13JVMFlagAccess11access_implEPK7JVMFlag(ptr noundef %0) #1 comdat align 2 {
  %2 = alloca ptr, align 8
  %3 = alloca i32, align 4
  %4 = alloca i32, align 4
  store ptr %0, ptr %2, align 8
  %5 = load ptr, ptr %2, align 8
  %6 = call noundef i32 @_ZNK7JVMFlag4typeEv(ptr noundef nonnull align 8 dereferenceable(24) %5)
  store i32 %6, ptr %3, align 4
  store i32 10, ptr %4, align 4
  %7 = load i32, ptr %3, align 4
  %8 = sext i32 %7 to i64
  %9 = getelementptr inbounds [10 x ptr], ptr @_ZL12flag_accesss, i64 0, i64 %8
  %10 = load ptr, ptr %9, align 8
  ret ptr %10
}

; Function Attrs: mustprogress nounwind uwtable
define hidden void @_ZN13JVMFlagAccess11print_rangeEP12outputStreamPK7JVMFlagPK12JVMFlagLimit(ptr noundef %0, ptr noundef %1, ptr noundef %2) #1 align 2 {
  %4 = alloca ptr, align 8
  %5 = alloca ptr, align 8
  %6 = alloca ptr, align 8
  store ptr %0, ptr %4, align 8
  store ptr %1, ptr %5, align 8
  store ptr %2, ptr %6, align 8
  %7 = load ptr, ptr %5, align 8
  %8 = call noundef ptr @_ZN13JVMFlagAccess11access_implEPK7JVMFlag(ptr noundef %7)
  %9 = load ptr, ptr %4, align 8
  %10 = load ptr, ptr %6, align 8
  %11 = load ptr, ptr %8, align 8
  %12 = getelementptr inbounds ptr, ptr %11, i64 2
  %13 = load ptr, ptr %12, align 8
  call void %13(ptr noundef nonnull align 8 dereferenceable(8) %8, ptr noundef %9, ptr noundef %10)
  ret void
}