; Function Attrs: mustprogress nounwind uwtable
define hidden void @_ZN13JVMFlagAccess11print_rangeEP12outputStreamPK7JVMFlagPK12JVMFlagLimit(ptr noundef %0, ptr nocapture noundef readonly %1, ptr noundef %2) local_unnamed_addr #0 align 2 {
  %4 = getelementptr inbounds i8, ptr %1, i64 20
  %5 = load i32, ptr %4, align 4
  %6 = sext i32 %5 to i64
  %7 = getelementptr inbounds [10 x ptr], ptr @_ZL12flag_accesss, i64 0, i64 %6
  %8 = load ptr, ptr %7, align 8
  %9 = load ptr, ptr %8, align 8
  %10 = getelementptr inbounds i8, ptr %9, i64 16
  %11 = load ptr, ptr %10, align 8
  tail call void %11(ptr noundef nonnull align 8 dereferenceable(8) %8, ptr noundef %0, ptr noundef %2) #10
  ret void
}